target datalayout = "e-m:e-p270:32:32-p271:32:32-p272:64:64-i64:64-i128:128-f80:128-n8:16:32:64-S128"
target triple = "x86_64-pc-linux-gnu"

%struct.GENERAL_NAME_st = type { i32, %union.anon }
%union.anon = type { ptr }
%struct.ACCESS_DESCRIPTION_st = type { ptr, ptr }

; Function Attrs: inlinehint nounwind uwtable
define internal ptr @ossl_check_const_ACCESS_DESCRIPTION_sk_type(ptr noundef %0) #4 {
  %2 = alloca ptr, align 8
  store ptr %0, ptr %2, align 8, !tbaa !54
  %3 = load ptr, ptr %2, align 8, !tbaa !54
  ret ptr %3
}

; Function Attrs: nounwind uwtable
define ptr @X509_get1_ocsp(ptr noundef %0) #0 {
  %2 = alloca ptr, align 8
  %3 = alloca ptr, align 8
  %4 = alloca ptr, align 8
  %5 = alloca ptr, align 8
  %6 = alloca i32, align 4
  %7 = alloca i32, align 4
  %8 = alloca ptr, align 8
  store ptr %0, ptr %3, align 8, !tbaa !38
  call void @llvm.lifetime.start.p0(i64 8, ptr %4) #8
  call void @llvm.lifetime.start.p0(i64 8, ptr %5) #8
  store ptr null, ptr %5, align 8, !tbaa !42
  call void @llvm.lifetime.start.p0(i64 4, ptr %6) #8
  %9 = load ptr, ptr %3, align 8, !tbaa !38
  %10 = call ptr @X509_get_ext_d2i(ptr noundef %9, i32 noundef 177, ptr noundef null, ptr noundef null)
  store ptr %10, ptr %4, align 8, !tbaa !54
  %11 = load ptr, ptr %4, align 8, !tbaa !54
  %12 = icmp ne ptr %11, null
  br i1 %12, label %14, label %13

13:                                               ; preds = %1
  store ptr null, ptr %2, align 8
  store i32 1, ptr %7, align 4
  br label %59

14:                                               ; preds = %1
  store i32 0, ptr %6, align 4, !tbaa !15
  br label %15

15:                                               ; preds = %53, %14
  %16 = load i32, ptr %6, align 4, !tbaa !15
  %17 = load ptr, ptr %4, align 8, !tbaa !54
  %18 = call ptr @ossl_check_const_ACCESS_DESCRIPTION_sk_type(ptr noundef %17)
  %19 = call i32 @OPENSSL_sk_num(ptr noundef %18)
  %20 = icmp slt i32 %16, %19
  br i1 %20, label %21, label %56

21:                                               ; preds = %15
  call void @llvm.lifetime.start.p0(i64 8, ptr %8) #8
  %22 = load ptr, ptr %4, align 8, !tbaa !54
  %23 = call ptr @ossl_check_const_ACCESS_DESCRIPTION_sk_type(ptr noundef %22)
  %24 = load i32, ptr %6, align 4, !tbaa !15
  %25 = call ptr @OPENSSL_sk_value(ptr noundef %23, i32 noundef %24)
  store ptr %25, ptr %8, align 8, !tbaa !56
  %26 = load ptr, ptr %8, align 8, !tbaa !56
  %27 = getelementptr inbounds nuw %struct.ACCESS_DESCRIPTION_st, ptr %26, i32 0, i32 0
  %28 = load ptr, ptr %27, align 8, !tbaa !58
  %29 = call i32 @OBJ_obj2nid(ptr noundef %28)
  %30 = icmp eq i32 %29, 178
  br i1 %30, label %31, label %49

31:                                               ; preds = %21
  %32 = load ptr, ptr %8, align 8, !tbaa !56
  %33 = getelementptr inbounds nuw %struct.ACCESS_DESCRIPTION_st, ptr %32, i32 0, i32 1
  %34 = load ptr, ptr %33, align 8, !tbaa !61
  %35 = getelementptr inbounds nuw %struct.GENERAL_NAME_st, ptr %34, i32 0, i32 0
  %36 = load i32, ptr %35, align 8, !tbaa !51
  %37 = icmp eq i32 %36, 6
  br i1 %37, label %38, label %48

38:                                               ; preds = %31
  %39 = load ptr, ptr %8, align 8, !tbaa !56
  %40 = getelementptr inbounds nuw %struct.ACCESS_DESCRIPTION_st, ptr %39, i32 0, i32 1
  %41 = load ptr, ptr %40, align 8, !tbaa !61
  %42 = getelementptr inbounds nuw %struct.GENERAL_NAME_st, ptr %41, i32 0, i32 1
  %43 = load ptr, ptr %42, align 8, !tbaa !27
  %44 = call i32 @append_ia5(ptr noundef %5, ptr noundef %43)
  %45 = icmp ne i32 %44, 0
  br i1 %45, label %47, label %46

46:                                               ; preds = %38
  store i32 2, ptr %7, align 4
  br label %50

47:                                               ; preds = %38
  br label %48

48:                                               ; preds = %47, %31
  br label %49

49:                                               ; preds = %48, %21
  store i32 0, ptr %7, align 4
  br label %50

50:                                               ; preds = %49, %46
  call void @llvm.lifetime.end.p0(i64 8, ptr %8) #8
  %51 = load i32, ptr %7, align 4
  switch i32 %51, label %61 [
    i32 0, label %52
    i32 2, label %56
  ]

52:                                               ; preds = %50
  br label %53

53:                                               ; preds = %52
  %54 = load i32, ptr %6, align 4, !tbaa !15
  %55 = add nsw i32 %54, 1
  store i32 %55, ptr %6, align 4, !tbaa !15
  br label %15, !llvm.loop !62

56:                                               ; preds = %50, %15
  %57 = load ptr, ptr %4, align 8, !tbaa !54
  call void @AUTHORITY_INFO_ACCESS_free(ptr noundef %57)
  %58 = load ptr, ptr %5, align 8, !tbaa !42
  store ptr %58, ptr %2, align 8
  store i32 1, ptr %7, align 4
  br label %59

59:                                               ; preds = %56, %13
  call void @llvm.lifetime.end.p0(i64 4, ptr %6) #8
  call void @llvm.lifetime.end.p0(i64 8, ptr %5) #8
  call void @llvm.lifetime.end.p0(i64 8, ptr %4) #8
  %60 = load ptr, ptr %2, align 8
  ret ptr %60

61:                                               ; preds = %50
  unreachable
}