; Function Attrs: nounwind uwtable
define ptr @X509_get1_ocsp(ptr noundef %0) local_unnamed_addr #0 {
  %2 = alloca ptr, align 8
  call void @llvm.lifetime.start.p0(i64 8, ptr nonnull %2) #12
  store ptr null, ptr %2, align 8, !tbaa !27
  %3 = tail call ptr @X509_get_ext_d2i(ptr noundef %0, i32 noundef 177, ptr noundef null, ptr noundef null) #12
  %.not = icmp eq ptr %3, null
  br i1 %.not, label %24, label %.preheader

.preheader:                                       ; preds = %1
  %4 = tail call i32 @OPENSSL_sk_num(ptr noundef nonnull %3) #12
  %5 = icmp sgt i32 %4, 0
  br i1 %5, label %.lr.ph, label %._crit_edge

.lr.ph:                                           ; preds = %.preheader, %19
  %.01318 = phi i32 [ %20, %19 ], [ 0, %.preheader ]
  %6 = tail call ptr @OPENSSL_sk_value(ptr noundef nonnull %3, i32 noundef %.01318) #12
  %7 = load ptr, ptr %6, align 8, !tbaa !33
  %8 = tail call i32 @OBJ_obj2nid(ptr noundef %7) #12
  %9 = icmp eq i32 %8, 178
  br i1 %9, label %10, label %19

10:                                               ; preds = %.lr.ph
  %11 = getelementptr inbounds nuw i8, ptr %6, i64 8
  %12 = load ptr, ptr %11, align 8, !tbaa !37
  %13 = load i32, ptr %12, align 8, !tbaa !30
  %14 = icmp eq i32 %13, 6
  br i1 %14, label %15, label %19

15:                                               ; preds = %10
  %16 = getelementptr inbounds nuw i8, ptr %12, i64 8
  %17 = load ptr, ptr %16, align 8, !tbaa !13
  %18 = call fastcc i32 @append_ia5(ptr noundef %2, ptr noundef %17)
  %.not15 = icmp eq i32 %18, 0
  br i1 %.not15, label %._crit_edge.loopexit, label %19

19:                                               ; preds = %.lr.ph, %15, %10
  %20 = add nuw nsw i32 %.01318, 1
  %21 = tail call i32 @OPENSSL_sk_num(ptr noundef nonnull %3) #12
  %22 = icmp slt i32 %20, %21
  br i1 %22, label %.lr.ph, label %._crit_edge.loopexit, !llvm.loop !38

._crit_edge.loopexit:                             ; preds = %15, %19
  %.pre = load ptr, ptr %2, align 8, !tbaa !27
  br label %._crit_edge

._crit_edge:                                      ; preds = %._crit_edge.loopexit, %.preheader
  %23 = phi ptr [ %.pre, %._crit_edge.loopexit ], [ null, %.preheader ]
  tail call void @AUTHORITY_INFO_ACCESS_free(ptr noundef nonnull %3) #12
  br label %24

24:                                               ; preds = %1, %._crit_edge
  %.0 = phi ptr [ %23, %._crit_edge ], [ null, %1 ]
  call void @llvm.lifetime.end.p0(i64 8, ptr nonnull %2) #12
  ret ptr %.0
}